target datalayout = "e-m:e-p270:32:32-p271:32:32-p272:64:64-i64:64-i128:128-f80:128-n8:16:32:64-S128"
target triple = "x86_64-pc-linux-gnu"

%struct.block_q8_0 = type { i16, [32 x i8] }
%union.anon.10 = type { float }
%union.anon.11 = type { i32 }

; Function Attrs: inlinehint nounwind uwtable
define internal float @fp32_from_bits(i32 noundef %0) #3 {
  %2 = alloca i32, align 4
  %3 = alloca %union.anon.11, align 4
  store i32 %0, ptr %2, align 4, !tbaa !11
  call void @llvm.lifetime.start.p0(i64 4, ptr %3) #10
  %4 = load i32, ptr %2, align 4, !tbaa !11
  store i32 %4, ptr %3, align 4, !tbaa !20
  %5 = load float, ptr %3, align 4, !tbaa !20
  call void @llvm.lifetime.end.p0(i64 4, ptr %3) #10
  ret float %5
}

; Function Attrs: inlinehint nounwind uwtable
define internal i32 @fp32_to_bits(float noundef %0) #3 {
  %2 = alloca float, align 4
  %3 = alloca %union.anon.10, align 4
  store float %0, ptr %2, align 4, !tbaa !13
  call void @llvm.lifetime.start.p0(i64 4, ptr %3) #10
  %4 = load float, ptr %2, align 4, !tbaa !13
  store float %4, ptr %3, align 4, !tbaa !20
  %5 = load i32, ptr %3, align 4, !tbaa !20
  call void @llvm.lifetime.end.p0(i64 4, ptr %3) #10
  ret i32 %5
}

; Function Attrs: inlinehint nounwind uwtable
define internal zeroext i16 @ggml_compute_fp32_to_fp16(float noundef %0) #3 {
  %2 = alloca float, align 4
  %3 = alloca float, align 4
  %4 = alloca float, align 4
  %5 = alloca float, align 4
  %6 = alloca i32, align 4
  %7 = alloca i32, align 4
  %8 = alloca i32, align 4
  %9 = alloca i32, align 4
  %10 = alloca i32, align 4
  %11 = alloca i32, align 4
  %12 = alloca i32, align 4
  %13 = alloca i32, align 4
  store float %0, ptr %2, align 4, !tbaa !13
  call void @llvm.lifetime.start.p0(i64 4, ptr %3) #10
  store float 0x46F0000000000000, ptr %3, align 4, !tbaa !13
  call void @llvm.lifetime.start.p0(i64 4, ptr %4) #10
  store float 0x3910000000000000, ptr %4, align 4, !tbaa !13
  call void @llvm.lifetime.start.p0(i64 4, ptr %5) #10
  %14 = load float, ptr %2, align 4, !tbaa !13
  %15 = call float @llvm.fabs.f32(float %14)
  %16 = fmul float %15, 0x46F0000000000000
  %17 = fmul float %16, 0x3910000000000000
  store float %17, ptr %5, align 4, !tbaa !13
  call void @llvm.lifetime.start.p0(i64 4, ptr %6) #10
  %18 = load float, ptr %2, align 4, !tbaa !13
  %19 = call i32 @fp32_to_bits(float noundef %18)
  store i32 %19, ptr %6, align 4, !tbaa !11
  call void @llvm.lifetime.start.p0(i64 4, ptr %7) #10
  %20 = load i32, ptr %6, align 4, !tbaa !11
  %21 = load i32, ptr %6, align 4, !tbaa !11
  %22 = add i32 %20, %21
  store i32 %22, ptr %7, align 4, !tbaa !11
  call void @llvm.lifetime.start.p0(i64 4, ptr %8) #10
  %23 = load i32, ptr %6, align 4, !tbaa !11
  %24 = and i32 %23, -2147483648
  store i32 %24, ptr %8, align 4, !tbaa !11
  call void @llvm.lifetime.start.p0(i64 4, ptr %9) #10
  %25 = load i32, ptr %7, align 4, !tbaa !11
  %26 = and i32 %25, -16777216
  store i32 %26, ptr %9, align 4, !tbaa !11
  %27 = load i32, ptr %9, align 4, !tbaa !11
  %28 = icmp ult i32 %27, 1895825408
  br i1 %28, label %29, label %30

29:                                               ; preds = %1
  store i32 1895825408, ptr %9, align 4, !tbaa !11
  br label %30

30:                                               ; preds = %29, %1
  %31 = load i32, ptr %9, align 4, !tbaa !11
  %32 = lshr i32 %31, 1
  %33 = add i32 %32, 125829120
  %34 = call float @fp32_from_bits(i32 noundef %33)
  %35 = load float, ptr %5, align 4, !tbaa !13
  %36 = fadd float %34, %35
  store float %36, ptr %5, align 4, !tbaa !13
  call void @llvm.lifetime.start.p0(i64 4, ptr %10) #10
  %37 = load float, ptr %5, align 4, !tbaa !13
  %38 = call i32 @fp32_to_bits(float noundef %37)
  store i32 %38, ptr %10, align 4, !tbaa !11
  call void @llvm.lifetime.start.p0(i64 4, ptr %11) #10
  %39 = load i32, ptr %10, align 4, !tbaa !11
  %40 = lshr i32 %39, 13
  %41 = and i32 %40, 31744
  store i32 %41, ptr %11, align 4, !tbaa !11
  call void @llvm.lifetime.start.p0(i64 4, ptr %12) #10
  %42 = load i32, ptr %10, align 4, !tbaa !11
  %43 = and i32 %42, 4095
  store i32 %43, ptr %12, align 4, !tbaa !11
  call void @llvm.lifetime.start.p0(i64 4, ptr %13) #10
  %44 = load i32, ptr %11, align 4, !tbaa !11
  %45 = load i32, ptr %12, align 4, !tbaa !11
  %46 = add i32 %44, %45
  store i32 %46, ptr %13, align 4, !tbaa !11
  %47 = load i32, ptr %8, align 4, !tbaa !11
  %48 = lshr i32 %47, 16
  %49 = load i32, ptr %7, align 4, !tbaa !11
  %50 = icmp ugt i32 %49, -16777216
  br i1 %50, label %51, label %52

51:                                               ; preds = %30
  br label %54

52:                                               ; preds = %30
  %53 = load i32, ptr %13, align 4, !tbaa !11
  br label %54

54:                                               ; preds = %52, %51
  %55 = phi i32 [ 32256, %51 ], [ %53, %52 ]
  %56 = or i32 %48, %55
  %57 = trunc i32 %56 to i16
  call void @llvm.lifetime.end.p0(i64 4, ptr %13) #10
  call void @llvm.lifetime.end.p0(i64 4, ptr %12) #10
  call void @llvm.lifetime.end.p0(i64 4, ptr %11) #10
  call void @llvm.lifetime.end.p0(i64 4, ptr %10) #10
  call void @llvm.lifetime.end.p0(i64 4, ptr %9) #10
  call void @llvm.lifetime.end.p0(i64 4, ptr %8) #10
  call void @llvm.lifetime.end.p0(i64 4, ptr %7) #10
  call void @llvm.lifetime.end.p0(i64 4, ptr %6) #10
  call void @llvm.lifetime.end.p0(i64 4, ptr %5) #10
  call void @llvm.lifetime.end.p0(i64 4, ptr %4) #10
  call void @llvm.lifetime.end.p0(i64 4, ptr %3) #10
  ret i16 %57
}

; Function Attrs: nounwind uwtable
define void @quantize_row_q8_0_ref(ptr noalias noundef %0, ptr noalias noundef %1, i64 noundef %2) #0 {
  %4 = alloca ptr, align 8
  %5 = alloca ptr, align 8
  %6 = alloca i64, align 8
  %7 = alloca i32, align 4
  %8 = alloca i32, align 4
  %9 = alloca i32, align 4
  %10 = alloca float, align 4
  %11 = alloca i32, align 4
  %12 = alloca float, align 4
  %13 = alloca float, align 4
  %14 = alloca float, align 4
  %15 = alloca i32, align 4
  %16 = alloca float, align 4
  store ptr %0, ptr %4, align 8, !tbaa !3
  store ptr %1, ptr %5, align 8, !tbaa !8
  store i64 %2, ptr %6, align 8, !tbaa !9
  call void @llvm.lifetime.start.p0(i64 4, ptr %7) #10
  %17 = load i64, ptr %6, align 8, !tbaa !9
  %18 = sdiv i64 %17, 32
  %19 = trunc i64 %18 to i32
  store i32 %19, ptr %7, align 4, !tbaa !11
  call void @llvm.lifetime.start.p0(i64 4, ptr %8) #10
  store i32 0, ptr %8, align 4, !tbaa !11
  br label %20

20:                                               ; preds = %101, %3
  %21 = load i32, ptr %8, align 4, !tbaa !11
  %22 = load i32, ptr %7, align 4, !tbaa !11
  %23 = icmp slt i32 %21, %22
  br i1 %23, label %25, label %24

24:                                               ; preds = %20
  store i32 2, ptr %9, align 4
  call void @llvm.lifetime.end.p0(i64 4, ptr %8) #10
  br label %104

25:                                               ; preds = %20
  call void @llvm.lifetime.start.p0(i64 4, ptr %10) #10
  store float 0.000000e+00, ptr %10, align 4, !tbaa !13
  call void @llvm.lifetime.start.p0(i64 4, ptr %11) #10
  store i32 0, ptr %11, align 4, !tbaa !11
  br label %26

26:                                               ; preds = %50, %25
  %27 = load i32, ptr %11, align 4, !tbaa !11
  %28 = icmp slt i32 %27, 32
  br i1 %28, label %30, label %29

29:                                               ; preds = %26
  store i32 5, ptr %9, align 4
  call void @llvm.lifetime.end.p0(i64 4, ptr %11) #10
  br label %53

30:                                               ; preds = %26
  call void @llvm.lifetime.start.p0(i64 4, ptr %12) #10
  %31 = load ptr, ptr %4, align 8, !tbaa !3
  %32 = load i32, ptr %8, align 4, !tbaa !11
  %33 = mul nsw i32 %32, 32
  %34 = load i32, ptr %11, align 4, !tbaa !11
  %35 = add nsw i32 %33, %34
  %36 = sext i32 %35 to i64
  %37 = getelementptr inbounds float, ptr %31, i64 %36
  %38 = load float, ptr %37, align 4, !tbaa !13
  store float %38, ptr %12, align 4, !tbaa !13
  %39 = load float, ptr %10, align 4, !tbaa !13
  %40 = load float, ptr %12, align 4, !tbaa !13
  %41 = call float @llvm.fabs.f32(float %40)
  %42 = fcmp ogt float %39, %41
  br i1 %42, label %43, label %45

43:                                               ; preds = %30
  %44 = load float, ptr %10, align 4, !tbaa !13
  br label %48

45:                                               ; preds = %30
  %46 = load float, ptr %12, align 4, !tbaa !13
  %47 = call float @llvm.fabs.f32(float %46)
  br label %48

48:                                               ; preds = %45, %43
  %49 = phi float [ %44, %43 ], [ %47, %45 ]
  store float %49, ptr %10, align 4, !tbaa !13
  call void @llvm.lifetime.end.p0(i64 4, ptr %12) #10
  br label %50

50:                                               ; preds = %48
  %51 = load i32, ptr %11, align 4, !tbaa !11
  %52 = add nsw i32 %51, 1
  store i32 %52, ptr %11, align 4, !tbaa !11
  br label %26, !llvm.loop !34

53:                                               ; preds = %29
  call void @llvm.lifetime.start.p0(i64 4, ptr %13) #10
  %54 = load float, ptr %10, align 4, !tbaa !13
  %55 = fdiv float %54, 1.270000e+02
  store float %55, ptr %13, align 4, !tbaa !13
  call void @llvm.lifetime.start.p0(i64 4, ptr %14) #10
  %56 = load float, ptr %13, align 4, !tbaa !13
  %57 = fcmp une float %56, 0.000000e+00
  br i1 %57, label %58, label %61

58:                                               ; preds = %53
  %59 = load float, ptr %13, align 4, !tbaa !13
  %60 = fdiv float 1.000000e+00, %59
  br label %62

61:                                               ; preds = %53
  br label %62

62:                                               ; preds = %61, %58
  %63 = phi float [ %60, %58 ], [ 0.000000e+00, %61 ]
  store float %63, ptr %14, align 4, !tbaa !13
  %64 = load float, ptr %13, align 4, !tbaa !13
  %65 = call zeroext i16 @ggml_compute_fp32_to_fp16(float noundef %64)
  %66 = load ptr, ptr %5, align 8, !tbaa !8
  %67 = load i32, ptr %8, align 4, !tbaa !11
  %68 = sext i32 %67 to i64
  %69 = getelementptr inbounds %struct.block_q8_0, ptr %66, i64 %68
  %70 = getelementptr inbounds nuw %struct.block_q8_0, ptr %69, i32 0, i32 0
  store i16 %65, ptr %70, align 2, !tbaa !17
  call void @llvm.lifetime.start.p0(i64 4, ptr %15) #10
  store i32 0, ptr %15, align 4, !tbaa !11
  br label %71

71:                                               ; preds = %97, %62
  %72 = load i32, ptr %15, align 4, !tbaa !11
  %73 = icmp slt i32 %72, 32
  br i1 %73, label %75, label %74

74:                                               ; preds = %71
  store i32 8, ptr %9, align 4
  call void @llvm.lifetime.end.p0(i64 4, ptr %15) #10
  br label %100

75:                                               ; preds = %71
  call void @llvm.lifetime.start.p0(i64 4, ptr %16) #10
  %76 = load ptr, ptr %4, align 8, !tbaa !3
  %77 = load i32, ptr %8, align 4, !tbaa !11
  %78 = mul nsw i32 %77, 32
  %79 = load i32, ptr %15, align 4, !tbaa !11
  %80 = add nsw i32 %78, %79
  %81 = sext i32 %80 to i64
  %82 = getelementptr inbounds float, ptr %76, i64 %81
  %83 = load float, ptr %82, align 4, !tbaa !13
  %84 = load float, ptr %14, align 4, !tbaa !13
  %85 = fmul float %83, %84
  store float %85, ptr %16, align 4, !tbaa !13
  %86 = load float, ptr %16, align 4, !tbaa !13
  %87 = call float @llvm.round.f32(float %86)
  %88 = fptosi float %87 to i8
  %89 = load ptr, ptr %5, align 8, !tbaa !8
  %90 = load i32, ptr %8, align 4, !tbaa !11
  %91 = sext i32 %90 to i64
  %92 = getelementptr inbounds %struct.block_q8_0, ptr %89, i64 %91
  %93 = getelementptr inbounds nuw %struct.block_q8_0, ptr %92, i32 0, i32 1
  %94 = load i32, ptr %15, align 4, !tbaa !11
  %95 = sext i32 %94 to i64
  %96 = getelementptr inbounds [32 x i8], ptr %93, i64 0, i64 %95
  store i8 %88, ptr %96, align 1, !tbaa !20
  call void @llvm.lifetime.end.p0(i64 4, ptr %16) #10
  br label %97

97:                                               ; preds = %75
  %98 = load i32, ptr %15, align 4, !tbaa !11
  %99 = add nsw i32 %98, 1
  store i32 %99, ptr %15, align 4, !tbaa !11
  br label %71, !llvm.loop !35

100:                                              ; preds = %74
  call void @llvm.lifetime.end.p0(i64 4, ptr %14) #10
  call void @llvm.lifetime.end.p0(i64 4, ptr %13) #10
  call void @llvm.lifetime.end.p0(i64 4, ptr %10) #10
  br label %101

101:                                              ; preds = %100
  %102 = load i32, ptr %8, align 4, !tbaa !11
  %103 = add nsw i32 %102, 1
  store i32 %103, ptr %8, align 4, !tbaa !11
  br label %20, !llvm.loop !36

104:                                              ; preds = %24
  call void @llvm.lifetime.end.p0(i64 4, ptr %7) #10
  ret void
}

; Function Attrs: nounwind uwtable
define i64 @quantize_q8_0(ptr noalias noundef %0, ptr noalias noundef %1, i64 noundef %2, i64 noundef %3, ptr noundef %4) #0 {
  %6 = alloca ptr, align 8
  %7 = alloca ptr, align 8
  %8 = alloca i64, align 8
  %9 = alloca i64, align 8
  %10 = alloca ptr, align 8
  %11 = alloca i64, align 8
  store ptr %0, ptr %6, align 8, !tbaa !3
  store ptr %1, ptr %7, align 8, !tbaa !8
  store i64 %2, ptr %8, align 8, !tbaa !9
  store i64 %3, ptr %9, align 8, !tbaa !9
  store ptr %4, ptr %10, align 8, !tbaa !3
  call void @llvm.lifetime.start.p0(i64 8, ptr %11) #10
  %12 = load i64, ptr %9, align 8, !tbaa !9
  %13 = call i64 @ggml_row_size(i32 noundef 8, i64 noundef %12)
  store i64 %13, ptr %11, align 8, !tbaa !9
  %14 = load ptr, ptr %6, align 8, !tbaa !3
  %15 = load ptr, ptr %7, align 8, !tbaa !8
  %16 = load i64, ptr %8, align 8, !tbaa !9
  %17 = load i64, ptr %9, align 8, !tbaa !9
  %18 = mul nsw i64 %16, %17
  call void @quantize_row_q8_0_ref(ptr noundef %14, ptr noundef %15, i64 noundef %18)
  %19 = load i64, ptr %8, align 8, !tbaa !9
  %20 = load i64, ptr %11, align 8, !tbaa !9
  %21 = mul i64 %19, %20
  call void @llvm.lifetime.end.p0(i64 8, ptr %11) #10
  ret i64 %21
}