; Function Attrs: nounwind uwtable
define i64 @quantize_q8_0(ptr noalias noundef readonly captures(none) %0, ptr noalias noundef writeonly captures(none) %1, i64 noundef %2, i64 noundef %3, ptr noundef readnone captures(none) %4) local_unnamed_addr #6 {
  %6 = tail call i64 @ggml_row_size(i32 noundef 8, i64 noundef %3) #23
  %7 = mul nsw i64 %3, %2
  tail call void @llvm.experimental.noalias.scope.decl(metadata !588)
  tail call void @llvm.experimental.noalias.scope.decl(metadata !591)
  %8 = sdiv i64 %7, 32
  %9 = trunc i64 %8 to i32
  %10 = icmp sgt i32 %9, 0
  br i1 %10, label %.preheader.preheader.i, label %quantize_row_q8_0_ref.exit

.preheader.preheader.i:                           ; preds = %5
  %wide.trip.count.i = and i64 %8, 2147483647
  br label %.preheader.i

.preheader.i:                                     ; preds = %44, %.preheader.preheader.i
  %indvars.iv40.i = phi i64 [ 0, %.preheader.preheader.i ], [ %indvars.iv.next41.i, %44 ]
  %invariant.gep.i.idx = shl nsw i64 %indvars.iv40.i, 7
  %invariant.gep.i = getelementptr inbounds nuw i8, ptr %0, i64 %invariant.gep.i.idx
  br label %39

11:                                               ; preds = %39
  %12 = fdiv float %43, 1.270000e+02
  %13 = fcmp une float %12, 0.000000e+00
  %14 = fdiv float 1.000000e+00, %12
  %15 = select i1 %13, float %14, float 0.000000e+00
  %16 = tail call float @llvm.fabs.f32(float %12)
  %17 = fmul float %16, 0x46F0000000000000
  %18 = fmul float %17, 0x3910000000000000
  %19 = bitcast float %12 to i32
  %20 = shl i32 %19, 1
  %21 = tail call i32 @llvm.umax.i32(i32 %20, i32 1895825408)
  %spec.store.select.i.i = lshr exact i32 %21, 1
  %22 = and i32 %spec.store.select.i.i, 2139095040
  %23 = add nuw i32 %22, 125829120
  %24 = bitcast i32 %23 to float
  %25 = fadd float %18, %24
  %26 = bitcast float %25 to i32
  %27 = lshr i32 %26, 13
  %28 = and i32 %27, 31744
  %29 = and i32 %26, 4095
  %30 = add nuw nsw i32 %28, %29
  %31 = lshr i32 %19, 16
  %32 = and i32 %31, 32768
  %33 = icmp ugt i32 %20, -16777216
  %34 = select i1 %33, i32 32256, i32 %30
  %35 = or i32 %34, %32
  %36 = trunc nuw i32 %35 to i16
  %37 = getelementptr inbounds nuw %struct.block_q8_0, ptr %1, i64 %indvars.iv40.i
  store i16 %36, ptr %37, align 2, !tbaa !3, !alias.scope !591, !noalias !588
  %38 = getelementptr inbounds nuw i8, ptr %37, i64 2
  br label %45

39:                                               ; preds = %39, %.preheader.i
  %indvars.iv.i = phi i64 [ 0, %.preheader.i ], [ %indvars.iv.next.i, %39 ]
  %.02932.i = phi float [ 0.000000e+00, %.preheader.i ], [ %43, %39 ]
  %gep.i = getelementptr inbounds nuw float, ptr %invariant.gep.i, i64 %indvars.iv.i
  %40 = load float, ptr %gep.i, align 4, !tbaa !8, !alias.scope !588, !noalias !591
  %41 = tail call float @llvm.fabs.f32(float %40)
  %42 = fcmp ogt float %.02932.i, %41
  %43 = select i1 %42, float %.02932.i, float %41
  %indvars.iv.next.i = add nuw nsw i64 %indvars.iv.i, 1
  %exitcond.not.i = icmp eq i64 %indvars.iv.next.i, 32
  br i1 %exitcond.not.i, label %11, label %39, !llvm.loop !26

44:                                               ; preds = %45
  %indvars.iv.next41.i = add nuw nsw i64 %indvars.iv40.i, 1
  %exitcond43.not.i = icmp eq i64 %indvars.iv.next41.i, %wide.trip.count.i
  br i1 %exitcond43.not.i, label %quantize_row_q8_0_ref.exit, label %.preheader.i, !llvm.loop !27

45:                                               ; preds = %45, %11
  %indvars.iv36.i = phi i64 [ 0, %11 ], [ %indvars.iv.next37.i, %45 ]
  %gep45.i = getelementptr inbounds nuw float, ptr %invariant.gep.i, i64 %indvars.iv36.i
  %46 = load float, ptr %gep45.i, align 4, !tbaa !8, !alias.scope !588, !noalias !591
  %47 = fmul float %15, %46
  %48 = tail call float @llvm.round.f32(float %47)
  %49 = fptosi float %48 to i8
  %50 = getelementptr inbounds nuw [32 x i8], ptr %38, i64 0, i64 %indvars.iv36.i
  store i8 %49, ptr %50, align 1, !tbaa !13, !alias.scope !591, !noalias !588
  %indvars.iv.next37.i = add nuw nsw i64 %indvars.iv36.i, 1
  %exitcond39.not.i = icmp eq i64 %indvars.iv.next37.i, 32
  br i1 %exitcond39.not.i, label %44, label %45, !llvm.loop !28

quantize_row_q8_0_ref.exit:                       ; preds = %44, %5
  %51 = mul i64 %6, %2
  ret i64 %51
}